target datalayout = "e-m:e-p270:32:32-p271:32:32-p272:64:64-i64:64-i128:128-f80:128-n8:16:32:64-S128"
target triple = "x86_64-pc-linux-gnu"

@bio_err = external global ptr, align 8
@.str.24 = private unnamed_addr constant [19 x i8] c"Unable to load %s\0A\00", align 1

; Function Attrs: nounwind uwtable
define dso_local ptr @bio_open_default(ptr noundef %0, i8 noundef signext %1, i32 noundef %2) #0 {
  %4 = alloca ptr, align 8
  %5 = alloca i8, align 1
  %6 = alloca i32, align 4
  store ptr %0, ptr %4, align 8, !tbaa !9
  store i8 %1, ptr %5, align 1, !tbaa !11
  store i32 %2, ptr %6, align 4, !tbaa !25
  %7 = load ptr, ptr %4, align 8, !tbaa !9
  %8 = load i8, ptr %5, align 1, !tbaa !11
  %9 = load i32, ptr %6, align 4, !tbaa !25
  %10 = call ptr @bio_open_default_(ptr noundef %7, i8 noundef signext %8, i32 noundef %9, i32 noundef 0)
  ret ptr %10
}

; Function Attrs: nounwind uwtable
define dso_local ptr @load_csr(ptr noundef %0, i32 noundef %1, ptr noundef %2) #0 {
  %4 = alloca ptr, align 8
  %5 = alloca i32, align 4
  %6 = alloca ptr, align 8
  %7 = alloca ptr, align 8
  %8 = alloca ptr, align 8
  store ptr %0, ptr %4, align 8, !tbaa !9
  store i32 %1, ptr %5, align 4, !tbaa !25
  store ptr %2, ptr %6, align 8, !tbaa !9
  call void @llvm.lifetime.start.p0(i64 8, ptr %7) #12
  store ptr null, ptr %7, align 8, !tbaa !82
  call void @llvm.lifetime.start.p0(i64 8, ptr %8) #12
  %9 = load i32, ptr %5, align 4, !tbaa !25
  %10 = icmp eq i32 %9, 0
  br i1 %10, label %11, label %12

11:                                               ; preds = %3
  store i32 32773, ptr %5, align 4, !tbaa !25
  br label %12

12:                                               ; preds = %11, %3
  %13 = load ptr, ptr %4, align 8, !tbaa !9
  %14 = load i32, ptr %5, align 4, !tbaa !25
  %15 = call ptr @bio_open_default(ptr noundef %13, i8 noundef signext 114, i32 noundef %14)
  store ptr %15, ptr %8, align 8, !tbaa !35
  %16 = load ptr, ptr %8, align 8, !tbaa !35
  %17 = icmp eq ptr %16, null
  br i1 %17, label %18, label %19

18:                                               ; preds = %12
  br label %35

19:                                               ; preds = %12
  %20 = load i32, ptr %5, align 4, !tbaa !25
  %21 = icmp eq i32 %20, 4
  br i1 %21, label %22, label %25

22:                                               ; preds = %19
  %23 = load ptr, ptr %8, align 8, !tbaa !35
  %24 = call ptr @d2i_X509_REQ_bio(ptr noundef %23, ptr noundef null)
  store ptr %24, ptr %7, align 8, !tbaa !82
  br label %34

25:                                               ; preds = %19
  %26 = load i32, ptr %5, align 4, !tbaa !25
  %27 = icmp eq i32 %26, 32773
  br i1 %27, label %28, label %31

28:                                               ; preds = %25
  %29 = load ptr, ptr %8, align 8, !tbaa !35
  %30 = call ptr @PEM_read_bio_X509_REQ(ptr noundef %29, ptr noundef null, ptr noundef null, ptr noundef null)
  store ptr %30, ptr %7, align 8, !tbaa !82
  br label %33

31:                                               ; preds = %25
  %32 = load i32, ptr %5, align 4, !tbaa !25
  call void @print_format_error(i32 noundef %32, i64 noundef 6)
  br label %33

33:                                               ; preds = %31, %28
  br label %34

34:                                               ; preds = %33, %22
  br label %35

35:                                               ; preds = %34, %18
  %36 = load ptr, ptr %7, align 8, !tbaa !82
  %37 = icmp eq ptr %36, null
  br i1 %37, label %38, label %47

38:                                               ; preds = %35
  %39 = load ptr, ptr @bio_err, align 8, !tbaa !35
  call void @ERR_print_errors(ptr noundef %39)
  %40 = load ptr, ptr %6, align 8, !tbaa !9
  %41 = icmp ne ptr %40, null
  br i1 %41, label %42, label %46

42:                                               ; preds = %38
  %43 = load ptr, ptr @bio_err, align 8, !tbaa !35
  %44 = load ptr, ptr %6, align 8, !tbaa !9
  %45 = call i32 (ptr, ptr, ...) @BIO_printf(ptr noundef %43, ptr noundef @.str.24, ptr noundef %44)
  br label %46

46:                                               ; preds = %42, %38
  br label %47

47:                                               ; preds = %46, %35
  %48 = load ptr, ptr %8, align 8, !tbaa !35
  %49 = call i32 @BIO_free(ptr noundef %48)
  %50 = load ptr, ptr %7, align 8, !tbaa !82
  call void @llvm.lifetime.end.p0(i64 8, ptr %8) #12
  call void @llvm.lifetime.end.p0(i64 8, ptr %7) #12
  ret ptr %50
}