; Function Attrs: nounwind uwtable
define dso_local ptr @load_csr(ptr noundef %0, i32 noundef %1, ptr noundef %2) local_unnamed_addr #0 {
  %4 = icmp eq i32 %1, 0
  %spec.store.select = select i1 %4, i32 32773, i32 %1
  %5 = tail call fastcc ptr @bio_open_default_(ptr noundef %0, i8 noundef signext 114, i32 noundef %spec.store.select, i32 noundef 0)
  %6 = icmp eq ptr %5, null
  br i1 %6, label %.thread, label %7

7:                                                ; preds = %3
  switch i32 %spec.store.select, label %12 [
    i32 4, label %8
    i32 32773, label %10
  ]

8:                                                ; preds = %7
  %9 = tail call ptr @d2i_X509_REQ_bio(ptr noundef nonnull %5, ptr noundef null) #27
  br label %13

10:                                               ; preds = %7
  %11 = tail call ptr @PEM_read_bio_X509_REQ(ptr noundef nonnull %5, ptr noundef null, ptr noundef null, ptr noundef null) #27
  br label %13

12:                                               ; preds = %7
  tail call void @print_format_error(i32 noundef %spec.store.select, i64 noundef 6) #27
  br label %.thread

13:                                               ; preds = %8, %10
  %.0 = phi ptr [ %9, %8 ], [ %11, %10 ]
  %14 = icmp eq ptr %.0, null
  br i1 %14, label %.thread, label %19

.thread:                                          ; preds = %12, %3, %13
  %15 = load ptr, ptr @bio_err, align 8, !tbaa !26
  tail call void @ERR_print_errors(ptr noundef %15) #27
  %.not = icmp eq ptr %2, null
  br i1 %.not, label %19, label %16

16:                                               ; preds = %.thread
  %17 = load ptr, ptr @bio_err, align 8, !tbaa !26
  %18 = tail call i32 (ptr, ptr, ...) @BIO_printf(ptr noundef %17, ptr noundef nonnull @.str.24, ptr noundef nonnull %2) #27
  br label %19

19:                                               ; preds = %.thread, %16, %13
  %.016 = phi ptr [ null, %.thread ], [ null, %16 ], [ %.0, %13 ]
  %20 = tail call i32 @BIO_free(ptr noundef %5) #27
  ret ptr %.016
}